target datalayout = "e-m:e-p270:32:32-p271:32:32-p272:64:64-i64:64-i128:128-f80:128-n8:16:32:64-S128"
target triple = "x86_64-pc-linux-gnu"

@yy_c_buf_p = internal global ptr null, align 8
@yy_last_accepting_state = internal global i32 0, align 4
@yy_last_accepting_cpos = internal global ptr null, align 8
@yy_meta = internal constant [41 x i8] c"\00\01\01\02\03\03\03\03\03\03\03\03\01\01\01\01\01\01\01\01\01\01\01\01\01\01\01\01\01\01\01\01\01\01\01\01\01\01\01\01\01", align 16

; Function Attrs: nounwind uwtable
define internal i32 @yy_try_NUL_trans(i32 noundef %0) #0 {
  %2 = alloca i32, align 4
  %3 = alloca i32, align 4
  %4 = alloca ptr, align 8
  %5 = alloca i8, align 1
  store i32 %0, ptr %2, align 4
  %6 = load ptr, ptr @yy_c_buf_p, align 8
  store ptr %6, ptr %4, align 8
  store i8 1, ptr %5, align 1
  %7 = load i32, ptr %2, align 4
  %8 = sext i32 %7 to i64
  %9 = getelementptr inbounds [283 x i16], ptr @yy_accept, i64 0, i64 %8
  %10 = load i16, ptr %9, align 2
  %11 = icmp ne i16 %10, 0
  br i1 %11, label %12, label %15

12:                                               ; preds = %1
  %13 = load i32, ptr %2, align 4
  store i32 %13, ptr @yy_last_accepting_state, align 4
  %14 = load ptr, ptr %4, align 8
  store ptr %14, ptr @yy_last_accepting_cpos, align 8
  br label %15

15:                                               ; preds = %12, %1
  br label %16

16:                                               ; preds = %44, %15
  %17 = load i32, ptr %2, align 4
  %18 = sext i32 %17 to i64
  %19 = getelementptr inbounds [285 x i16], ptr @yy_base, i64 0, i64 %18
  %20 = load i16, ptr %19, align 2
  %21 = sext i16 %20 to i32
  %22 = load i8, ptr %5, align 1
  %23 = zext i8 %22 to i32
  %24 = add nsw i32 %21, %23
  %25 = sext i32 %24 to i64
  %26 = getelementptr inbounds [349 x i16], ptr @yy_chk, i64 0, i64 %25
  %27 = load i16, ptr %26, align 2
  %28 = sext i16 %27 to i32
  %29 = load i32, ptr %2, align 4
  %30 = icmp ne i32 %28, %29
  br i1 %30, label %31, label %45

31:                                               ; preds = %16
  %32 = load i32, ptr %2, align 4
  %33 = sext i32 %32 to i64
  %34 = getelementptr inbounds [285 x i16], ptr @yy_def, i64 0, i64 %33
  %35 = load i16, ptr %34, align 2
  %36 = sext i16 %35 to i32
  store i32 %36, ptr %2, align 4
  %37 = load i32, ptr %2, align 4
  %38 = icmp sge i32 %37, 283
  br i1 %38, label %39, label %44

39:                                               ; preds = %31
  %40 = load i8, ptr %5, align 1
  %41 = zext i8 %40 to i64
  %42 = getelementptr inbounds [41 x i8], ptr @yy_meta, i64 0, i64 %41
  %43 = load i8, ptr %42, align 1
  store i8 %43, ptr %5, align 1
  br label %44

44:                                               ; preds = %39, %31
  br label %16

45:                                               ; preds = %16
  %46 = load i32, ptr %2, align 4
  %47 = sext i32 %46 to i64
  %48 = getelementptr inbounds [285 x i16], ptr @yy_base, i64 0, i64 %47
  %49 = load i16, ptr %48, align 2
  %50 = sext i16 %49 to i32
  %51 = load i8, ptr %5, align 1
  %52 = zext i8 %51 to i32
  %53 = add nsw i32 %50, %52
  %54 = sext i32 %53 to i64
  %55 = getelementptr inbounds [349 x i16], ptr @yy_nxt, i64 0, i64 %54
  %56 = load i16, ptr %55, align 2
  %57 = sext i16 %56 to i32
  store i32 %57, ptr %2, align 4
  %58 = load i32, ptr %2, align 4
  %59 = icmp eq i32 %58, 282
  %60 = zext i1 %59 to i32
  store i32 %60, ptr %3, align 4
  %61 = load i32, ptr %3, align 4
  %62 = icmp ne i32 %61, 0
  br i1 %62, label %63, label %64

63:                                               ; preds = %45
  br label %66

64:                                               ; preds = %45
  %65 = load i32, ptr %2, align 4
  br label %66

66:                                               ; preds = %64, %63
  %67 = phi i32 [ 0, %63 ], [ %65, %64 ]
  ret i32 %67
}