; Function Attrs: nofree norecurse nosync nounwind memory(readwrite, argmem: none, inaccessiblemem: none) uwtable
define internal fastcc range(i32 -32768, 32768) i32 @yy_try_NUL_trans(i32 noundef %0) unnamed_addr #4 {
  %2 = sext i32 %0 to i64
  %3 = getelementptr inbounds [283 x i16], ptr @yy_accept, i64 0, i64 %2
  %4 = load i16, ptr %3, align 2
  %.not = icmp eq i16 %4, 0
  br i1 %.not, label %7, label %5

5:                                                ; preds = %1
  %6 = load ptr, ptr @yy_c_buf_p, align 8
  store i32 %0, ptr @yy_last_accepting_state, align 4
  store ptr %6, ptr @yy_last_accepting_cpos, align 8
  br label %7

7:                                                ; preds = %5, %1
  %8 = getelementptr inbounds [285 x i16], ptr @yy_base, i64 0, i64 %2
  %9 = load i16, ptr %8, align 2
  %10 = sext i16 %9 to i64
  %11 = add nsw i64 %10, 1
  %12 = getelementptr inbounds [349 x i16], ptr @yy_chk, i64 0, i64 %11
  %13 = load i16, ptr %12, align 2
  %14 = sext i16 %13 to i32
  %.not1415 = icmp eq i32 %14, %0
  br i1 %.not1415, label %._crit_edge, label %.lr.ph

.lr.ph:                                           ; preds = %7, %.lr.ph
  %15 = phi i64 [ %18, %.lr.ph ], [ %2, %7 ]
  %16 = getelementptr inbounds [285 x i16], ptr @yy_def, i64 0, i64 %15
  %17 = load i16, ptr %16, align 2
  %18 = sext i16 %17 to i64
  %19 = getelementptr inbounds [285 x i16], ptr @yy_base, i64 0, i64 %18
  %20 = load i16, ptr %19, align 2
  %21 = sext i16 %20 to i64
  %22 = add nsw i64 %21, 1
  %23 = getelementptr inbounds [349 x i16], ptr @yy_chk, i64 0, i64 %22
  %24 = load i16, ptr %23, align 2
  %.not14 = icmp eq i16 %17, %24
  br i1 %.not14, label %._crit_edge, label %.lr.ph

._crit_edge:                                      ; preds = %.lr.ph, %7
  %.lcssa = phi i64 [ %11, %7 ], [ %22, %.lr.ph ]
  %25 = getelementptr inbounds [349 x i16], ptr @yy_nxt, i64 0, i64 %.lcssa
  %26 = load i16, ptr %25, align 2
  %27 = icmp eq i16 %26, 282
  %narrow = select i1 %27, i16 0, i16 %26
  %28 = sext i16 %narrow to i32
  ret i32 %28
}